Certificate:
    Data:
        Version: 3 (0x2)
        Serial Number:
            ce:82:0e:44:6e:ab:fc:89
        Signature Algorithm: md5WithRSAEncryption
        Issuer: C=CA, ST=ontario, L=toronto, O=fis, OU=dev, CN=fis_signer_1
        Validity
            Not Before: Jul 16 13:28:28 2010 GMT
            Not After : Jul 16 13:28:28 2011 GMT
        Subject: C=CA, ST=ontario, L=toronto, O=fis, OU=dev, CN=tokenizer_client_1
        Subject Public Key Info:
            Public Key Algorithm: rsaEncryption
            RSA Public Key: (1024 bit)
                Modulus (1024 bit):
                    00:df:6a:83:d5:1f:45:1c:1c:d4:85:a5:6a:8d:e6:
                    54:e5:96:ff:4d:f8:1c:55:10:aa:fd:25:8c:19:f4:
                    6e:c7:01:39:01:75:a9:af:c7:8e:f1:f2:a4:46:ee:
                    7f:4a:2a:d1:94:b8:2a:f7:68:ca:1c:c4:1f:5a:ca:
                    a5:5d:c3:e1:51:66:4b:e9:a6:25:1f:06:48:f1:5d:
                    ea:14:ce:ac:11:df:47:5b:d6:e6:44:52:6a:9e:4b:
                    05:0e:1c:87:9e:f7:53:23:e4:b8:d4:16:ea:2c:ff:
                    63:4b:dd:f7:43:60:2b:7c:e7:a8:1d:91:15:51:2a:
                    98:72:7a:68:0e:e5:d8:fc:a1
                Exponent: 65537 (0x10001)
        X509v3 extensions:
            X509v3 Basic Constraints: 
                CA:FALSE
            Netscape Comment: 
                OpenSSL Generated Certificate
            X509v3 Subject Key Identifier: 
                46:08:33:0B:C7:BE:EE:BD:27:8E:2C:5C:B7:A2:56:57:17:38:FF:FA
            X509v3 Authority Key Identifier: 
                keyid:BA:43:83:4B:F3:D8:AD:13:65:93:46:8C:60:41:A7:EB:69:A1:41:89
                DirName:/C=CA/ST=ontario/L=toronto/O=fis/OU=dev/CN=fis_signer_1
                serial:CE:82:0E:44:6E:AB:FC:87

    Signature Algorithm: md5WithRSAEncryption
        59:1e:e3:e8:bf:aa:bb:64:65:f2:e0:3e:16:0a:16:eb:98:02:
        53:5c:31:51:74:23:6e:f8:d6:8f:f7:aa:ee:86:3e:d5:38:30:
        3b:df:57:8e:67:e1:52:3f:f0:ac:2b:98:ac:d6:44:80:2a:4a:
        b2:1f:20:a3:14:c2:70:4d:ae:f4:dc:cc:ec:20:07:c2:2f:ec:
        aa:93:e7:51:37:4c:26:75:20:02:5a:67:8b:71:29:98:cd:92:
        8d:09:ab:12:fb:58:a9:5b:12:46:d5:01:8f:7e:e4:7e:7a:05:
        a4:bd:e2:e4:df:7b:43:0a:fe:1d:65:0f:8f:a0:33:23:dd:f2:
        95:4a
-----BEGIN CERTIFICATE-----
MIIDQTCCAqqgAwIBAgIJAM6CDkRuq/yJMA0GCSqGSIb3DQEBBAUAMGQxCzAJBgNV
BAYTAkNBMRAwDgYDVQQIEwdvbnRhcmlvMRAwDgYDVQQHEwd0b3JvbnRvMQwwCgYD
VQQKEwNmaXMxDDAKBgNVBAsTA2RldjEVMBMGA1UEAxQMZmlzX3NpZ25lcl8xMB4X
DTEwMDcxNjEzMjgyOFoXDTExMDcxNjEzMjgyOFowajELMAkGA1UEBhMCQ0ExEDAO
BgNVBAgTB29udGFyaW8xEDAOBgNVBAcTB3Rvcm9udG8xDDAKBgNVBAoTA2ZpczEM
MAoGA1UECxMDZGV2MRswGQYDVQQDFBJ0b2tlbml6ZXJfY2xpZW50XzEwgZ8wDQYJ
KoZIhvcNAQEBBQADgY0AMIGJAoGBAN9qg9UfRRwc1IWlao3mVOWW/034HFUQqv0l
jBn0bscBOQF1qa/HjvHypEbuf0oq0ZS4KvdoyhzEH1rKpV3D4VFmS+mmJR8GSPFd
6hTOrBHfR1vW5kRSap5LBQ4ch573UyPkuNQW6iz/Y0vd90NgK3znqB2RFVEqmHJ6
aA7l2PyhAgMBAAGjgfQwgfEwCQYDVR0TBAIwADAsBglghkgBhvhCAQ0EHxYdT3Bl
blNTTCBHZW5lcmF0ZWQgQ2VydGlmaWNhdGUwHQYDVR0OBBYEFEYIMwvHvu69J44s
XLeiVlcXOP/6MIGWBgNVHSMEgY4wgYuAFLpDg0vz2K0TZZNGjGBBp+tpoUGJoWik
ZjBkMQswCQYDVQQGEwJDQTEQMA4GA1UECBMHb250YXJpbzEQMA4GA1UEBxMHdG9y
b250bzEMMAoGA1UEChMDZmlzMQwwCgYDVQQLEwNkZXYxFTATBgNVBAMUDGZpc19z
aWduZXJfMYIJAM6CDkRuq/yHMA0GCSqGSIb3DQEBBAUAA4GBAFke4+i/qrtkZfLg
PhYKFuuYAlNcMVF0I2741o/3qu6GPtU4MDvfV45n4VI/8KwrmKzWRIAqSrIfIKMU
wnBNrvTczOwgB8Iv7KqT51E3TCZ1IAJaZ4txKZjNko0JqxL7WKlbEkbVAY9+5H56
BaS94uTfe0MK/h1lD4+gMyPd8pVK
-----END CERTIFICATE-----
